target datalayout = "e-m:e-p270:32:32-p271:32:32-p272:64:64-i64:64-i128:128-f80:128-n8:16:32:64-S128"
target triple = "x86_64-pc-linux-gnu"

%struct.XanContext = type { ptr, ptr, ptr, ptr, i32, %struct.GetByteContext }
%struct.GetByteContext = type { ptr, ptr, ptr }

; Function Attrs: alwaysinline nounwind uwtable
define internal i32 @bytestream_get_byte(ptr noundef %0) #4 {
  %2 = alloca ptr, align 8
  store ptr %0, ptr %2, align 8, !tbaa !68
  %3 = load ptr, ptr %2, align 8, !tbaa !68
  %4 = load ptr, ptr %3, align 8, !tbaa !52
  %5 = getelementptr inbounds i8, ptr %4, i64 1
  store ptr %5, ptr %3, align 8, !tbaa !52
  %6 = load ptr, ptr %2, align 8, !tbaa !68
  %7 = load ptr, ptr %6, align 8, !tbaa !52
  %8 = getelementptr inbounds i8, ptr %7, i64 -1
  %9 = getelementptr inbounds i8, ptr %8, i64 0
  %10 = load i8, ptr %9, align 1, !tbaa !56
  %11 = zext i8 %10 to i32
  ret i32 %11
}

; Function Attrs: alwaysinline nounwind willreturn memory(none) uwtable
define internal i32 @av_clip_c(i32 noundef %0, i32 noundef %1, i32 noundef %2) #8 {
  %4 = alloca i32, align 4
  %5 = alloca i32, align 4
  %6 = alloca i32, align 4
  %7 = alloca i32, align 4
  store i32 %0, ptr %5, align 4, !tbaa !46
  store i32 %1, ptr %6, align 4, !tbaa !46
  store i32 %2, ptr %7, align 4, !tbaa !46
  %8 = load i32, ptr %5, align 4, !tbaa !46
  %9 = load i32, ptr %6, align 4, !tbaa !46
  %10 = icmp slt i32 %8, %9
  br i1 %10, label %11, label %13

11:                                               ; preds = %3
  %12 = load i32, ptr %6, align 4, !tbaa !46
  store i32 %12, ptr %4, align 4
  br label %21

13:                                               ; preds = %3
  %14 = load i32, ptr %5, align 4, !tbaa !46
  %15 = load i32, ptr %7, align 4, !tbaa !46
  %16 = icmp sgt i32 %14, %15
  br i1 %16, label %17, label %19

17:                                               ; preds = %13
  %18 = load i32, ptr %7, align 4, !tbaa !46
  store i32 %18, ptr %4, align 4
  br label %21

19:                                               ; preds = %13
  %20 = load i32, ptr %5, align 4, !tbaa !46
  store i32 %20, ptr %4, align 4
  br label %21

21:                                               ; preds = %19, %17, %11
  %22 = load i32, ptr %4, align 4
  ret i32 %22
}

; Function Attrs: alwaysinline nounwind uwtable
define internal i32 @bytestream2_get_byteu(ptr noundef %0) #4 {
  %2 = alloca ptr, align 8
  store ptr %0, ptr %2, align 8, !tbaa !50
  %3 = load ptr, ptr %2, align 8, !tbaa !50
  %4 = getelementptr inbounds nuw %struct.GetByteContext, ptr %3, i32 0, i32 0
  %5 = call i32 @bytestream_get_byte(ptr noundef %4)
  ret i32 %5
}

; Function Attrs: alwaysinline nounwind uwtable
define internal i32 @bytestream2_get_bytes_left(ptr noundef %0) #4 {
  %2 = alloca ptr, align 8
  store ptr %0, ptr %2, align 8, !tbaa !50
  %3 = load ptr, ptr %2, align 8, !tbaa !50
  %4 = getelementptr inbounds nuw %struct.GetByteContext, ptr %3, i32 0, i32 1
  %5 = load ptr, ptr %4, align 8, !tbaa !55
  %6 = load ptr, ptr %2, align 8, !tbaa !50
  %7 = getelementptr inbounds nuw %struct.GetByteContext, ptr %6, i32 0, i32 0
  %8 = load ptr, ptr %7, align 8, !tbaa !53
  %9 = ptrtoint ptr %5 to i64
  %10 = ptrtoint ptr %8 to i64
  %11 = sub i64 %9, %10
  %12 = trunc i64 %11 to i32
  ret i32 %12
}

; Function Attrs: alwaysinline nounwind uwtable
define internal i32 @bytestream2_seek(ptr noundef %0, i32 noundef %1, i32 noundef %2) #4 {
  %4 = alloca i32, align 4
  %5 = alloca ptr, align 8
  %6 = alloca i32, align 4
  %7 = alloca i32, align 4
  store ptr %0, ptr %5, align 8, !tbaa !50
  store i32 %1, ptr %6, align 4, !tbaa !46
  store i32 %2, ptr %7, align 4, !tbaa !46
  %8 = load i32, ptr %7, align 4, !tbaa !46
  switch i32 %8, label %82 [
    i32 1, label %9
    i32 2, label %39
    i32 0, label %61
  ]

9:                                                ; preds = %3
  %10 = load i32, ptr %6, align 4, !tbaa !46
  %11 = load ptr, ptr %5, align 8, !tbaa !50
  %12 = getelementptr inbounds nuw %struct.GetByteContext, ptr %11, i32 0, i32 0
  %13 = load ptr, ptr %12, align 8, !tbaa !53
  %14 = load ptr, ptr %5, align 8, !tbaa !50
  %15 = getelementptr inbounds nuw %struct.GetByteContext, ptr %14, i32 0, i32 2
  %16 = load ptr, ptr %15, align 8, !tbaa !54
  %17 = ptrtoint ptr %13 to i64
  %18 = ptrtoint ptr %16 to i64
  %19 = sub i64 %17, %18
  %20 = sub nsw i64 0, %19
  %21 = trunc i64 %20 to i32
  %22 = load ptr, ptr %5, align 8, !tbaa !50
  %23 = getelementptr inbounds nuw %struct.GetByteContext, ptr %22, i32 0, i32 1
  %24 = load ptr, ptr %23, align 8, !tbaa !55
  %25 = load ptr, ptr %5, align 8, !tbaa !50
  %26 = getelementptr inbounds nuw %struct.GetByteContext, ptr %25, i32 0, i32 0
  %27 = load ptr, ptr %26, align 8, !tbaa !53
  %28 = ptrtoint ptr %24 to i64
  %29 = ptrtoint ptr %27 to i64
  %30 = sub i64 %28, %29
  %31 = trunc i64 %30 to i32
  %32 = call i32 @av_clip_c(i32 noundef %10, i32 noundef %21, i32 noundef %31) #11
  store i32 %32, ptr %6, align 4, !tbaa !46
  %33 = load i32, ptr %6, align 4, !tbaa !46
  %34 = load ptr, ptr %5, align 8, !tbaa !50
  %35 = getelementptr inbounds nuw %struct.GetByteContext, ptr %34, i32 0, i32 0
  %36 = load ptr, ptr %35, align 8, !tbaa !53
  %37 = sext i32 %33 to i64
  %38 = getelementptr inbounds i8, ptr %36, i64 %37
  store ptr %38, ptr %35, align 8, !tbaa !53
  br label %83

39:                                               ; preds = %3
  %40 = load i32, ptr %6, align 4, !tbaa !46
  %41 = load ptr, ptr %5, align 8, !tbaa !50
  %42 = getelementptr inbounds nuw %struct.GetByteContext, ptr %41, i32 0, i32 1
  %43 = load ptr, ptr %42, align 8, !tbaa !55
  %44 = load ptr, ptr %5, align 8, !tbaa !50
  %45 = getelementptr inbounds nuw %struct.GetByteContext, ptr %44, i32 0, i32 2
  %46 = load ptr, ptr %45, align 8, !tbaa !54
  %47 = ptrtoint ptr %43 to i64
  %48 = ptrtoint ptr %46 to i64
  %49 = sub i64 %47, %48
  %50 = sub nsw i64 0, %49
  %51 = trunc i64 %50 to i32
  %52 = call i32 @av_clip_c(i32 noundef %40, i32 noundef %51, i32 noundef 0) #11
  store i32 %52, ptr %6, align 4, !tbaa !46
  %53 = load ptr, ptr %5, align 8, !tbaa !50
  %54 = getelementptr inbounds nuw %struct.GetByteContext, ptr %53, i32 0, i32 1
  %55 = load ptr, ptr %54, align 8, !tbaa !55
  %56 = load i32, ptr %6, align 4, !tbaa !46
  %57 = sext i32 %56 to i64
  %58 = getelementptr inbounds i8, ptr %55, i64 %57
  %59 = load ptr, ptr %5, align 8, !tbaa !50
  %60 = getelementptr inbounds nuw %struct.GetByteContext, ptr %59, i32 0, i32 0
  store ptr %58, ptr %60, align 8, !tbaa !53
  br label %83

61:                                               ; preds = %3
  %62 = load i32, ptr %6, align 4, !tbaa !46
  %63 = load ptr, ptr %5, align 8, !tbaa !50
  %64 = getelementptr inbounds nuw %struct.GetByteContext, ptr %63, i32 0, i32 1
  %65 = load ptr, ptr %64, align 8, !tbaa !55
  %66 = load ptr, ptr %5, align 8, !tbaa !50
  %67 = getelementptr inbounds nuw %struct.GetByteContext, ptr %66, i32 0, i32 2
  %68 = load ptr, ptr %67, align 8, !tbaa !54
  %69 = ptrtoint ptr %65 to i64
  %70 = ptrtoint ptr %68 to i64
  %71 = sub i64 %69, %70
  %72 = trunc i64 %71 to i32
  %73 = call i32 @av_clip_c(i32 noundef %62, i32 noundef 0, i32 noundef %72) #11
  store i32 %73, ptr %6, align 4, !tbaa !46
  %74 = load ptr, ptr %5, align 8, !tbaa !50
  %75 = getelementptr inbounds nuw %struct.GetByteContext, ptr %74, i32 0, i32 2
  %76 = load ptr, ptr %75, align 8, !tbaa !54
  %77 = load i32, ptr %6, align 4, !tbaa !46
  %78 = sext i32 %77 to i64
  %79 = getelementptr inbounds i8, ptr %76, i64 %78
  %80 = load ptr, ptr %5, align 8, !tbaa !50
  %81 = getelementptr inbounds nuw %struct.GetByteContext, ptr %80, i32 0, i32 0
  store ptr %79, ptr %81, align 8, !tbaa !53
  br label %83

82:                                               ; preds = %3
  store i32 -22, ptr %4, align 4
  br label %86

83:                                               ; preds = %61, %39, %9
  %84 = load ptr, ptr %5, align 8, !tbaa !50
  %85 = call i32 @bytestream2_tell(ptr noundef %84)
  store i32 %85, ptr %4, align 4
  br label %86

86:                                               ; preds = %83, %82
  %87 = load i32, ptr %4, align 4
  ret i32 %87
}

; Function Attrs: alwaysinline nounwind uwtable
define internal void @bytestream2_skip(ptr noundef %0, i32 noundef %1) #4 {
  %3 = alloca ptr, align 8
  %4 = alloca i32, align 4
  store ptr %0, ptr %3, align 8, !tbaa !50
  store i32 %1, ptr %4, align 4, !tbaa !46
  %5 = load ptr, ptr %3, align 8, !tbaa !50
  %6 = getelementptr inbounds nuw %struct.GetByteContext, ptr %5, i32 0, i32 1
  %7 = load ptr, ptr %6, align 8, !tbaa !55
  %8 = load ptr, ptr %3, align 8, !tbaa !50
  %9 = getelementptr inbounds nuw %struct.GetByteContext, ptr %8, i32 0, i32 0
  %10 = load ptr, ptr %9, align 8, !tbaa !53
  %11 = ptrtoint ptr %7 to i64
  %12 = ptrtoint ptr %10 to i64
  %13 = sub i64 %11, %12
  %14 = load i32, ptr %4, align 4, !tbaa !46
  %15 = zext i32 %14 to i64
  %16 = icmp sgt i64 %13, %15
  br i1 %16, label %17, label %20

17:                                               ; preds = %2
  %18 = load i32, ptr %4, align 4, !tbaa !46
  %19 = zext i32 %18 to i64
  br label %30

20:                                               ; preds = %2
  %21 = load ptr, ptr %3, align 8, !tbaa !50
  %22 = getelementptr inbounds nuw %struct.GetByteContext, ptr %21, i32 0, i32 1
  %23 = load ptr, ptr %22, align 8, !tbaa !55
  %24 = load ptr, ptr %3, align 8, !tbaa !50
  %25 = getelementptr inbounds nuw %struct.GetByteContext, ptr %24, i32 0, i32 0
  %26 = load ptr, ptr %25, align 8, !tbaa !53
  %27 = ptrtoint ptr %23 to i64
  %28 = ptrtoint ptr %26 to i64
  %29 = sub i64 %27, %28
  br label %30

30:                                               ; preds = %20, %17
  %31 = phi i64 [ %19, %17 ], [ %29, %20 ]
  %32 = load ptr, ptr %3, align 8, !tbaa !50
  %33 = getelementptr inbounds nuw %struct.GetByteContext, ptr %32, i32 0, i32 0
  %34 = load ptr, ptr %33, align 8, !tbaa !53
  %35 = getelementptr inbounds i8, ptr %34, i64 %31
  store ptr %35, ptr %33, align 8, !tbaa !53
  ret void
}

; Function Attrs: alwaysinline nounwind uwtable
define internal i32 @bytestream2_get_byte(ptr noundef %0) #4 {
  %2 = alloca i32, align 4
  %3 = alloca ptr, align 8
  store ptr %0, ptr %3, align 8, !tbaa !50
  %4 = load ptr, ptr %3, align 8, !tbaa !50
  %5 = getelementptr inbounds nuw %struct.GetByteContext, ptr %4, i32 0, i32 1
  %6 = load ptr, ptr %5, align 8, !tbaa !55
  %7 = load ptr, ptr %3, align 8, !tbaa !50
  %8 = getelementptr inbounds nuw %struct.GetByteContext, ptr %7, i32 0, i32 0
  %9 = load ptr, ptr %8, align 8, !tbaa !53
  %10 = ptrtoint ptr %6 to i64
  %11 = ptrtoint ptr %9 to i64
  %12 = sub i64 %10, %11
  %13 = icmp slt i64 %12, 1
  br i1 %13, label %14, label %20

14:                                               ; preds = %1
  %15 = load ptr, ptr %3, align 8, !tbaa !50
  %16 = getelementptr inbounds nuw %struct.GetByteContext, ptr %15, i32 0, i32 1
  %17 = load ptr, ptr %16, align 8, !tbaa !55
  %18 = load ptr, ptr %3, align 8, !tbaa !50
  %19 = getelementptr inbounds nuw %struct.GetByteContext, ptr %18, i32 0, i32 0
  store ptr %17, ptr %19, align 8, !tbaa !53
  store i32 0, ptr %2, align 4
  br label %23

20:                                               ; preds = %1
  %21 = load ptr, ptr %3, align 8, !tbaa !50
  %22 = call i32 @bytestream2_get_byteu(ptr noundef %21)
  store i32 %22, ptr %2, align 4
  br label %23

23:                                               ; preds = %20, %14
  %24 = load i32, ptr %2, align 4
  ret i32 %24
}

; Function Attrs: alwaysinline nounwind uwtable
define internal i32 @bytestream2_tell(ptr noundef %0) #4 {
  %2 = alloca ptr, align 8
  store ptr %0, ptr %2, align 8, !tbaa !50
  %3 = load ptr, ptr %2, align 8, !tbaa !50
  %4 = getelementptr inbounds nuw %struct.GetByteContext, ptr %3, i32 0, i32 0
  %5 = load ptr, ptr %4, align 8, !tbaa !53
  %6 = load ptr, ptr %2, align 8, !tbaa !50
  %7 = getelementptr inbounds nuw %struct.GetByteContext, ptr %6, i32 0, i32 2
  %8 = load ptr, ptr %7, align 8, !tbaa !54
  %9 = ptrtoint ptr %5 to i64
  %10 = ptrtoint ptr %8 to i64
  %11 = sub i64 %9, %10
  %12 = trunc i64 %11 to i32
  ret i32 %12
}

; Function Attrs: nounwind uwtable
define internal i32 @xan_unpack_luma(ptr noundef %0, ptr noundef %1, i32 noundef %2) #1 {
  %4 = alloca ptr, align 8
  %5 = alloca ptr, align 8
  %6 = alloca i32, align 4
  %7 = alloca i32, align 4
  %8 = alloca i32, align 4
  %9 = alloca i32, align 4
  %10 = alloca i32, align 4
  %11 = alloca i32, align 4
  %12 = alloca i32, align 4
  %13 = alloca ptr, align 8
  %14 = alloca %struct.GetByteContext, align 8
  %15 = alloca i32, align 4
  %16 = alloca i32, align 4
  %17 = alloca i32, align 4
  store ptr %0, ptr %4, align 8, !tbaa !29
  store ptr %1, ptr %5, align 8, !tbaa !52
  store i32 %2, ptr %6, align 4, !tbaa !46
  call void @llvm.lifetime.start.p0(i64 4, ptr %7) #9
  call void @llvm.lifetime.start.p0(i64 4, ptr %8) #9
  call void @llvm.lifetime.start.p0(i64 4, ptr %9) #9
  call void @llvm.lifetime.start.p0(i64 4, ptr %10) #9
  call void @llvm.lifetime.start.p0(i64 4, ptr %11) #9
  call void @llvm.lifetime.start.p0(i64 4, ptr %12) #9
  call void @llvm.lifetime.start.p0(i64 8, ptr %13) #9
  %18 = load ptr, ptr %5, align 8, !tbaa !52
  %19 = load i32, ptr %6, align 4, !tbaa !46
  %20 = sext i32 %19 to i64
  %21 = getelementptr inbounds i8, ptr %18, i64 %20
  store ptr %21, ptr %13, align 8, !tbaa !52
  call void @llvm.lifetime.start.p0(i64 24, ptr %14) #9
  %22 = load ptr, ptr %4, align 8, !tbaa !29
  %23 = getelementptr inbounds nuw %struct.XanContext, ptr %22, i32 0, i32 5
  call void @llvm.memcpy.p0.p0.i64(ptr align 8 %14, ptr align 8 %23, i64 24, i1 false), !tbaa.struct !75
  call void @llvm.lifetime.start.p0(i64 4, ptr %15) #9
  %24 = call i32 @bytestream2_tell(ptr noundef %14)
  store i32 %24, ptr %15, align 4, !tbaa !46
  %25 = load ptr, ptr %4, align 8, !tbaa !29
  %26 = getelementptr inbounds nuw %struct.XanContext, ptr %25, i32 0, i32 5
  %27 = call i32 @bytestream2_get_byte(ptr noundef %26)
  store i32 %27, ptr %7, align 4, !tbaa !46
  %28 = load ptr, ptr %4, align 8, !tbaa !29
  %29 = getelementptr inbounds nuw %struct.XanContext, ptr %28, i32 0, i32 5
  %30 = call i32 @bytestream2_get_byte(ptr noundef %29)
  store i32 %30, ptr %8, align 4, !tbaa !46
  %31 = load i32, ptr %8, align 4, !tbaa !46
  %32 = load i32, ptr %7, align 4, !tbaa !46
  %33 = add nsw i32 %31, %32
  store i32 %33, ptr %11, align 4, !tbaa !46
  %34 = load ptr, ptr %4, align 8, !tbaa !29
  %35 = getelementptr inbounds nuw %struct.XanContext, ptr %34, i32 0, i32 5
  %36 = load i32, ptr %7, align 4, !tbaa !46
  %37 = mul nsw i32 %36, 2
  call void @bytestream2_skip(ptr noundef %35, i32 noundef %37)
  %38 = load i32, ptr %11, align 4, !tbaa !46
  store i32 %38, ptr %12, align 4, !tbaa !46
  %39 = load ptr, ptr %4, align 8, !tbaa !29
  %40 = getelementptr inbounds nuw %struct.XanContext, ptr %39, i32 0, i32 5
  %41 = call i32 @bytestream2_get_byte(ptr noundef %40)
  store i32 %41, ptr %9, align 4, !tbaa !46
  store i32 128, ptr %10, align 4, !tbaa !46
  br label %42

42:                                               ; preds = %98, %3
  call void @llvm.lifetime.start.p0(i64 4, ptr %16) #9
  %43 = load i32, ptr %9, align 4, !tbaa !46
  %44 = load i32, ptr %10, align 4, !tbaa !46
  %45 = and i32 %43, %44
  %46 = icmp ne i32 %45, 0
  %47 = xor i1 %46, true
  %48 = xor i1 %47, true
  %49 = zext i1 %48 to i32
  store i32 %49, ptr %16, align 4, !tbaa !46
  %50 = load i32, ptr %10, align 4, !tbaa !46
  %51 = ashr i32 %50, 1
  store i32 %51, ptr %10, align 4, !tbaa !46
  %52 = load i32, ptr %15, align 4, !tbaa !46
  %53 = load i32, ptr %12, align 4, !tbaa !46
  %54 = mul nsw i32 %53, 2
  %55 = add nsw i32 %52, %54
  %56 = load i32, ptr %16, align 4, !tbaa !46
  %57 = add nsw i32 %55, %56
  %58 = load i32, ptr %8, align 4, !tbaa !46
  %59 = mul nsw i32 %58, 2
  %60 = sub nsw i32 %57, %59
  %61 = call i32 @bytestream2_seek(ptr noundef %14, i32 noundef %60, i32 noundef 0)
  %62 = call i32 @bytestream2_get_byte(ptr noundef %14)
  store i32 %62, ptr %12, align 4, !tbaa !46
  %63 = load i32, ptr %12, align 4, !tbaa !46
  %64 = load i32, ptr %8, align 4, !tbaa !46
  %65 = icmp eq i32 %63, %64
  br i1 %65, label %66, label %67

66:                                               ; preds = %42
  store i32 2, ptr %17, align 4
  br label %96

67:                                               ; preds = %42
  %68 = load i32, ptr %12, align 4, !tbaa !46
  %69 = load i32, ptr %8, align 4, !tbaa !46
  %70 = icmp slt i32 %68, %69
  br i1 %70, label %71, label %82

71:                                               ; preds = %67
  %72 = load i32, ptr %12, align 4, !tbaa !46
  %73 = trunc i32 %72 to i8
  %74 = load ptr, ptr %5, align 8, !tbaa !52
  %75 = getelementptr inbounds nuw i8, ptr %74, i32 1
  store ptr %75, ptr %5, align 8, !tbaa !52
  store i8 %73, ptr %74, align 1, !tbaa !56
  %76 = load ptr, ptr %5, align 8, !tbaa !52
  %77 = load ptr, ptr %13, align 8, !tbaa !52
  %78 = icmp ugt ptr %76, %77
  br i1 %78, label %79, label %80

79:                                               ; preds = %71
  store i32 2, ptr %17, align 4
  br label %96

80:                                               ; preds = %71
  %81 = load i32, ptr %11, align 4, !tbaa !46
  store i32 %81, ptr %12, align 4, !tbaa !46
  br label %82

82:                                               ; preds = %80, %67
  %83 = load i32, ptr %10, align 4, !tbaa !46
  %84 = icmp ne i32 %83, 0
  br i1 %84, label %95, label %85

85:                                               ; preds = %82
  %86 = load ptr, ptr %4, align 8, !tbaa !29
  %87 = getelementptr inbounds nuw %struct.XanContext, ptr %86, i32 0, i32 5
  %88 = call i32 @bytestream2_get_bytes_left(ptr noundef %87)
  %89 = icmp sle i32 %88, 0
  br i1 %89, label %90, label %91

90:                                               ; preds = %85
  store i32 2, ptr %17, align 4
  br label %96

91:                                               ; preds = %85
  %92 = load ptr, ptr %4, align 8, !tbaa !29
  %93 = getelementptr inbounds nuw %struct.XanContext, ptr %92, i32 0, i32 5
  %94 = call i32 @bytestream2_get_byteu(ptr noundef %93)
  store i32 %94, ptr %9, align 4, !tbaa !46
  store i32 128, ptr %10, align 4, !tbaa !46
  br label %95

95:                                               ; preds = %91, %82
  store i32 0, ptr %17, align 4
  br label %96

96:                                               ; preds = %95, %90, %79, %66
  call void @llvm.lifetime.end.p0(i64 4, ptr %16) #9
  %97 = load i32, ptr %17, align 4
  switch i32 %97, label %104 [
    i32 0, label %98
    i32 2, label %99
  ]

98:                                               ; preds = %96
  br label %42

99:                                               ; preds = %96
  %100 = load ptr, ptr %5, align 8, !tbaa !52
  %101 = load ptr, ptr %13, align 8, !tbaa !52
  %102 = icmp ne ptr %100, %101
  %103 = select i1 %102, i32 -1094995529, i32 0
  store i32 1, ptr %17, align 4
  call void @llvm.lifetime.end.p0(i64 4, ptr %15) #9
  call void @llvm.lifetime.end.p0(i64 24, ptr %14) #9
  call void @llvm.lifetime.end.p0(i64 8, ptr %13) #9
  call void @llvm.lifetime.end.p0(i64 4, ptr %12) #9
  call void @llvm.lifetime.end.p0(i64 4, ptr %11) #9
  call void @llvm.lifetime.end.p0(i64 4, ptr %10) #9
  call void @llvm.lifetime.end.p0(i64 4, ptr %9) #9
  call void @llvm.lifetime.end.p0(i64 4, ptr %8) #9
  call void @llvm.lifetime.end.p0(i64 4, ptr %7) #9
  ret i32 %103

104:                                              ; preds = %96
  unreachable
}