; Function Attrs: nofree norecurse nosync nounwind memory(read, argmem: readwrite, inaccessiblemem: none) uwtable
define internal fastcc range(i32 -1094995529, 1) i32 @xan_unpack_luma(ptr noundef captures(none) %0, ptr noundef writeonly captures(address) %1, i32 noundef range(i32 -1073741824, 1073741824) %2) unnamed_addr #4 {
  %4 = sext i32 %2 to i64
  %5 = getelementptr inbounds i8, ptr %1, i64 %4
  %6 = getelementptr inbounds nuw i8, ptr %0, i64 40
  %.sroa.0.0.copyload = load ptr, ptr %6, align 8, !tbaa !45
  %.sroa.10.0..sroa_idx = getelementptr inbounds nuw i8, ptr %0, i64 48
  %.sroa.10.0.copyload = load ptr, ptr %.sroa.10.0..sroa_idx, align 8, !tbaa !45
  %.sroa.12.0..sroa_idx = getelementptr inbounds nuw i8, ptr %0, i64 56
  %.sroa.12.0.copyload = load ptr, ptr %.sroa.12.0..sroa_idx, align 8, !tbaa !45
  %7 = ptrtoint ptr %.sroa.0.0.copyload to i64
  %8 = ptrtoint ptr %.sroa.12.0.copyload to i64
  %9 = sub i64 %7, %8
  %10 = trunc i64 %9 to i32
  %11 = ptrtoint ptr %.sroa.10.0.copyload to i64
  %12 = sub i64 %11, %7
  %13 = icmp slt i64 %12, 1
  br i1 %13, label %bytestream2_get_byte.exit, label %14

14:                                               ; preds = %3
  %15 = getelementptr inbounds nuw i8, ptr %.sroa.0.0.copyload, i64 1
  store ptr %15, ptr %6, align 8, !tbaa !45
  %16 = load i8, ptr %.sroa.0.0.copyload, align 1, !tbaa !46
  %17 = zext i8 %16 to i32
  %.pre = ptrtoint ptr %15 to i64
  br label %bytestream2_get_byte.exit

bytestream2_get_byte.exit:                        ; preds = %3, %14
  %.pre-phi = phi i64 [ %.pre, %14 ], [ %11, %3 ]
  %18 = phi ptr [ %15, %14 ], [ %.sroa.10.0.copyload, %3 ]
  %.0.i51 = phi i32 [ %17, %14 ], [ 0, %3 ]
  %19 = sub i64 %11, %.pre-phi
  %20 = icmp slt i64 %19, 1
  br i1 %20, label %bytestream2_get_byte.exit53, label %21

21:                                               ; preds = %bytestream2_get_byte.exit
  %22 = getelementptr inbounds nuw i8, ptr %18, i64 1
  store ptr %22, ptr %6, align 8, !tbaa !45
  %23 = load i8, ptr %18, align 1, !tbaa !46
  %24 = zext i8 %23 to i32
  %.pre72 = ptrtoint ptr %22 to i64
  br label %bytestream2_get_byte.exit53

bytestream2_get_byte.exit53:                      ; preds = %bytestream2_get_byte.exit, %21
  %.pre-phi73 = phi i64 [ %.pre72, %21 ], [ %11, %bytestream2_get_byte.exit ]
  %25 = phi ptr [ %22, %21 ], [ %.sroa.10.0.copyload, %bytestream2_get_byte.exit ]
  %.0.i52 = phi i32 [ %24, %21 ], [ 0, %bytestream2_get_byte.exit ]
  %26 = add nuw nsw i32 %.0.i52, %.0.i51
  %27 = shl nuw nsw i32 %.0.i51, 1
  %28 = sub i64 %11, %.pre-phi73
  %29 = zext nneg i32 %27 to i64
  %..i = tail call i64 @llvm.smin.i64(i64 %28, i64 %29)
  %30 = getelementptr inbounds i8, ptr %25, i64 %..i
  %31 = ptrtoint ptr %30 to i64
  %32 = sub i64 %11, %31
  %33 = icmp slt i64 %32, 1
  br i1 %33, label %34, label %35

34:                                               ; preds = %bytestream2_get_byte.exit53
  store ptr %.sroa.10.0.copyload, ptr %6, align 8, !tbaa !42
  br label %bytestream2_get_byte.exit55

35:                                               ; preds = %bytestream2_get_byte.exit53
  %36 = getelementptr inbounds nuw i8, ptr %30, i64 1
  store ptr %36, ptr %6, align 8, !tbaa !45
  %37 = load i8, ptr %30, align 1, !tbaa !46
  %38 = zext i8 %37 to i32
  br label %bytestream2_get_byte.exit55

bytestream2_get_byte.exit55:                      ; preds = %34, %35
  %.0.i54 = phi i32 [ 0, %34 ], [ %38, %35 ]
  %39 = shl nuw nsw i32 %.0.i52, 1
  %40 = sub i32 %10, %39
  %41 = sub i64 %11, %8
  %42 = trunc i64 %41 to i32
  br label %.outer

.outer:                                           ; preds = %76, %bytestream2_get_byte.exit55
  %.039.ph = phi i32 [ %.241, %76 ], [ %26, %bytestream2_get_byte.exit55 ]
  %.033.ph = phi i32 [ %79, %76 ], [ %.0.i54, %bytestream2_get_byte.exit55 ]
  %.032.ph = phi ptr [ %.2, %76 ], [ %1, %bytestream2_get_byte.exit55 ]
  br label %43

43:                                               ; preds = %.outer, %67
  %.039 = phi i32 [ %.241, %67 ], [ %.039.ph, %.outer ]
  %.036 = phi i32 [ %47, %67 ], [ 128, %.outer ]
  %.032 = phi ptr [ %.2, %67 ], [ %.032.ph, %.outer ]
  %44 = and i32 %.033.ph, %.036
  %45 = icmp ne i32 %44, 0
  %46 = zext i1 %45 to i32
  %47 = lshr i32 %.036, 1
  %48 = shl nuw nsw i32 %.039, 1
  %49 = add i32 %40, %48
  %50 = add i32 %49, %46
  %51 = icmp slt i32 %50, 0
  %..i50 = tail call i32 @llvm.smin.i32(i32 %50, i32 %42)
  %.0.i = select i1 %51, i32 0, i32 %..i50
  %52 = sext i32 %.0.i to i64
  %53 = getelementptr inbounds i8, ptr %.sroa.12.0.copyload, i64 %52
  %54 = ptrtoint ptr %53 to i64
  %55 = sub i64 %11, %54
  %56 = icmp slt i64 %55, 1
  br i1 %56, label %bytestream2_get_byte.exit57, label %57

57:                                               ; preds = %43
  %58 = load i8, ptr %53, align 1, !tbaa !46
  %59 = zext i8 %58 to i32
  br label %bytestream2_get_byte.exit57

bytestream2_get_byte.exit57:                      ; preds = %43, %57
  %.0.i56 = phi i32 [ %59, %57 ], [ 0, %43 ]
  %60 = icmp eq i32 %.0.i56, %.0.i52
  br i1 %60, label %.loopexit, label %61

61:                                               ; preds = %bytestream2_get_byte.exit57
  %62 = icmp samesign ult i32 %.0.i56, %.0.i52
  br i1 %62, label %63, label %67

63:                                               ; preds = %61
  %64 = trunc nuw i32 %.0.i56 to i8
  %65 = getelementptr inbounds nuw i8, ptr %.032, i64 1
  store i8 %64, ptr %.032, align 1, !tbaa !46
  %66 = icmp ugt ptr %65, %5
  br i1 %66, label %.loopexit, label %67

67:                                               ; preds = %63, %61
  %.241 = phi i32 [ %.0.i56, %61 ], [ %26, %63 ]
  %.2 = phi ptr [ %.032, %61 ], [ %65, %63 ]
  %.not = icmp samesign ult i32 %.036, 2
  br i1 %.not, label %68, label %43

68:                                               ; preds = %67
  %69 = load ptr, ptr %.sroa.10.0..sroa_idx, align 8, !tbaa !44
  %70 = load ptr, ptr %6, align 8, !tbaa !42
  %71 = ptrtoint ptr %69 to i64
  %72 = ptrtoint ptr %70 to i64
  %73 = sub i64 %71, %72
  %74 = trunc i64 %73 to i32
  %75 = icmp slt i32 %74, 1
  br i1 %75, label %.loopexit, label %76

76:                                               ; preds = %68
  %77 = getelementptr inbounds nuw i8, ptr %70, i64 1
  store ptr %77, ptr %6, align 8, !tbaa !45
  %78 = load i8, ptr %70, align 1, !tbaa !46
  %79 = zext i8 %78 to i32
  br label %.outer

.loopexit:                                        ; preds = %68, %bytestream2_get_byte.exit57, %63
  %.1.ph = phi ptr [ %.032, %bytestream2_get_byte.exit57 ], [ %65, %63 ], [ %.2, %68 ]
  %.not49 = icmp eq ptr %.1.ph, %5
  %80 = select i1 %.not49, i32 0, i32 -1094995529
  ret i32 %80
}